target datalayout = "e-m:e-p270:32:32-p271:32:32-p272:64:64-i64:64-i128:128-f80:128-n8:16:32:64-S128"
target triple = "x86_64-pc-linux-gnu"

%"struct.gmx::BiasCoupledToSystem" = type { %"class.gmx::Bias", %"class.std::vector.25" }
%"class.gmx::Bias" = type <{ %"class.std::vector", %"class.gmx::BiasGrid", %"class.gmx::BiasParams", %"class.gmx::BiasState", %"class.std::vector.25", i8, [7 x i8], %"class.std::vector.15", %"class.std::unique_ptr", %"class.std::unique_ptr.32", %"class.std::vector.40", %"class.std::vector.15", i32, [4 x i8] }>
%"class.std::vector" = type { %"struct.std::_Vector_base" }
%"struct.std::_Vector_base" = type { %"struct.std::_Vector_base<gmx::DimParams, std::allocator<gmx::DimParams>>::_Vector_impl" }
%"struct.std::_Vector_base<gmx::DimParams, std::allocator<gmx::DimParams>>::_Vector_impl" = type { %"struct.std::_Vector_base<gmx::DimParams, std::allocator<gmx::DimParams>>::_Vector_impl_data" }
%"struct.std::_Vector_base<gmx::DimParams, std::allocator<gmx::DimParams>>::_Vector_impl_data" = type { ptr, ptr, ptr }
%"class.gmx::BiasGrid" = type { %"class.std::vector.0", %"class.std::vector.5" }
%"class.std::vector.0" = type { %"struct.std::_Vector_base.1" }
%"struct.std::_Vector_base.1" = type { %"struct.std::_Vector_base<gmx::GridPoint, std::allocator<gmx::GridPoint>>::_Vector_impl" }
%"struct.std::_Vector_base<gmx::GridPoint, std::allocator<gmx::GridPoint>>::_Vector_impl" = type { %"struct.std::_Vector_base<gmx::GridPoint, std::allocator<gmx::GridPoint>>::_Vector_impl_data" }
%"struct.std::_Vector_base<gmx::GridPoint, std::allocator<gmx::GridPoint>>::_Vector_impl_data" = type { ptr, ptr, ptr }
%"class.std::vector.5" = type { %"struct.std::_Vector_base.6" }
%"struct.std::_Vector_base.6" = type { %"struct.std::_Vector_base<gmx::GridAxis, std::allocator<gmx::GridAxis>>::_Vector_impl" }
%"struct.std::_Vector_base<gmx::GridAxis, std::allocator<gmx::GridAxis>>::_Vector_impl" = type { %"struct.std::_Vector_base<gmx::GridAxis, std::allocator<gmx::GridAxis>>::_Vector_impl_data" }
%"struct.std::_Vector_base<gmx::GridAxis, std::allocator<gmx::GridAxis>>::_Vector_impl_data" = type { ptr, ptr, ptr }
%"class.gmx::BiasParams" = type <{ double, i64, i32, [4 x i8], i64, i64, i32, i8, [3 x i8], double, double, double, i8, [3 x i8], i32, double, double, double, double, [4 x i32], i8, [3 x i8], i32, i8, [7 x i8] }>
%"class.gmx::BiasState" = type { %"class.gmx::CoordState", %"class.std::vector.10", %"class.std::vector.15", %"class.gmx::HistogramSize", [4 x i32], [4 x i32], ptr, %"class.std::vector.20" }
%"class.gmx::CoordState" = type { [4 x double], i32, i32 }
%"class.std::vector.10" = type { %"struct.std::_Vector_base.11" }
%"struct.std::_Vector_base.11" = type { %"struct.std::_Vector_base<gmx::PointState, std::allocator<gmx::PointState>>::_Vector_impl" }
%"struct.std::_Vector_base<gmx::PointState, std::allocator<gmx::PointState>>::_Vector_impl" = type { %"struct.std::_Vector_base<gmx::PointState, std::allocator<gmx::PointState>>::_Vector_impl_data" }
%"struct.std::_Vector_base<gmx::PointState, std::allocator<gmx::PointState>>::_Vector_impl_data" = type { ptr, ptr, ptr }
%"class.gmx::HistogramSize" = type <{ i64, double, i8, [7 x i8], double, i8, [7 x i8], double, double, i8, [7 x i8] }>
%"class.std::vector.20" = type { %"struct.std::_Vector_base.21" }
%"struct.std::_Vector_base.21" = type { %"struct.std::_Vector_base<std::vector<double>, std::allocator<std::vector<double>>>::_Vector_impl" }
%"struct.std::_Vector_base<std::vector<double>, std::allocator<std::vector<double>>>::_Vector_impl" = type { %"struct.std::_Vector_base<std::vector<double>, std::allocator<std::vector<double>>>::_Vector_impl_data" }
%"struct.std::_Vector_base<std::vector<double>, std::allocator<std::vector<double>>>::_Vector_impl_data" = type { ptr, ptr, ptr }
%"class.std::unique_ptr" = type { %"struct.std::__uniq_ptr_data" }
%"struct.std::__uniq_ptr_data" = type { %"class.std::__uniq_ptr_impl" }
%"class.std::__uniq_ptr_impl" = type { %"class.std::tuple" }
%"class.std::tuple" = type { %"struct.std::_Tuple_impl" }
%"struct.std::_Tuple_impl" = type { %"struct.std::_Head_base.31" }
%"struct.std::_Head_base.31" = type { ptr }
%"class.std::unique_ptr.32" = type { %"struct.std::__uniq_ptr_data.33" }
%"struct.std::__uniq_ptr_data.33" = type { %"class.std::__uniq_ptr_impl.34" }
%"class.std::__uniq_ptr_impl.34" = type { %"class.std::tuple.35" }
%"class.std::tuple.35" = type { %"struct.std::_Tuple_impl.36" }
%"struct.std::_Tuple_impl.36" = type { %"struct.std::_Head_base.39" }
%"struct.std::_Head_base.39" = type { ptr }
%"class.std::vector.40" = type { %"struct.std::_Vector_base.41" }
%"struct.std::_Vector_base.41" = type { %"struct.std::_Vector_base<double, gmx::Allocator<double, gmx::AlignedAllocationPolicy>>::_Vector_impl" }
%"struct.std::_Vector_base<double, gmx::Allocator<double, gmx::AlignedAllocationPolicy>>::_Vector_impl" = type { %"struct.std::_Vector_base<double, gmx::Allocator<double, gmx::AlignedAllocationPolicy>>::_Vector_impl_data" }
%"struct.std::_Vector_base<double, gmx::Allocator<double, gmx::AlignedAllocationPolicy>>::_Vector_impl_data" = type { ptr, ptr, ptr }
%"class.std::vector.15" = type { %"struct.std::_Vector_base.16" }
%"struct.std::_Vector_base.16" = type { %"struct.std::_Vector_base<double, std::allocator<double>>::_Vector_impl" }
%"struct.std::_Vector_base<double, std::allocator<double>>::_Vector_impl" = type { %"struct.std::_Vector_base<double, std::allocator<double>>::_Vector_impl_data" }
%"struct.std::_Vector_base<double, std::allocator<double>>::_Vector_impl_data" = type { ptr, ptr, ptr }
%"class.std::vector.25" = type { %"struct.std::_Vector_base.26" }
%"struct.std::_Vector_base.26" = type { %"struct.std::_Vector_base<int, std::allocator<int>>::_Vector_impl" }
%"struct.std::_Vector_base<int, std::allocator<int>>::_Vector_impl" = type { %"struct.std::_Vector_base<int, std::allocator<int>>::_Vector_impl_data" }
%"struct.std::_Vector_base<int, std::allocator<int>>::_Vector_impl_data" = type { ptr, ptr, ptr }
%"class.std::unique_ptr.85" = type { %"struct.std::__uniq_ptr_data.86" }
%"struct.std::__uniq_ptr_data.86" = type { %"class.std::__uniq_ptr_impl.87" }
%"class.std::__uniq_ptr_impl.87" = type { %"class.std::tuple.88" }
%"class.std::tuple.88" = type { %"struct.std::_Tuple_impl.89" }
%"struct.std::_Tuple_impl.89" = type { %"struct.std::_Head_base.92" }
%"struct.std::_Head_base.92" = type { ptr }
%"class.gmx::Awh" = type { %"class.std::vector.80", i64, i32, ptr, %"class.std::unique_ptr.85", ptr, double, i32, i32 }
%"class.std::vector.80" = type { %"struct.std::_Vector_base.81" }
%"struct.std::_Vector_base.81" = type { %"struct.std::_Vector_base<gmx::BiasCoupledToSystem, std::allocator<gmx::BiasCoupledToSystem>>::_Vector_impl" }
%"struct.std::_Vector_base<gmx::BiasCoupledToSystem, std::allocator<gmx::BiasCoupledToSystem>>::_Vector_impl" = type { %"struct.std::_Vector_base<gmx::BiasCoupledToSystem, std::allocator<gmx::BiasCoupledToSystem>>::_Vector_impl_data" }
%"struct.std::_Vector_base<gmx::BiasCoupledToSystem, std::allocator<gmx::BiasCoupledToSystem>>::_Vector_impl_data" = type { ptr, ptr, ptr }
%struct.t_commrec = type <{ i32, i32, i32, i32, ptr, ptr, i32, [4 x i8], ptr, i32, i32, %struct.gmx_nodecomm_t, %"class.std::unique_ptr.173", ptr, i32, [4 x i8] }>
%struct.gmx_nodecomm_t = type { i8, ptr, i32, ptr }
%"class.std::unique_ptr.173" = type { %"struct.std::__uniq_ptr_data.174" }
%"struct.std::__uniq_ptr_data.174" = type { %"class.std::__uniq_ptr_impl.175" }
%"class.std::__uniq_ptr_impl.175" = type { %"class.std::tuple.176" }
%"class.std::tuple.176" = type { %"struct.std::_Tuple_impl.177" }
%"struct.std::_Tuple_impl.177" = type { %"struct.std::_Head_base.180" }
%"struct.std::_Head_base.180" = type { ptr }
%"struct.gmx::AwhHistory" = type { %"class.std::vector.255", double }
%"class.std::vector.255" = type { %"struct.std::_Vector_base.256" }
%"struct.std::_Vector_base.256" = type { %"struct.std::_Vector_base<gmx::AwhBiasHistory, std::allocator<gmx::AwhBiasHistory>>::_Vector_impl" }
%"struct.std::_Vector_base<gmx::AwhBiasHistory, std::allocator<gmx::AwhBiasHistory>>::_Vector_impl" = type { %"struct.std::_Vector_base<gmx::AwhBiasHistory, std::allocator<gmx::AwhBiasHistory>>::_Vector_impl_data" }
%"struct.std::_Vector_base<gmx::AwhBiasHistory, std::allocator<gmx::AwhBiasHistory>>::_Vector_impl_data" = type { ptr, ptr, ptr }
%"struct.gmx::AwhBiasHistory" = type { %"class.std::vector.260", %"struct.gmx::AwhBiasStateHistory", %"struct.gmx::CorrelationGridHistory" }
%"class.std::vector.260" = type { %"struct.std::_Vector_base.261" }
%"struct.std::_Vector_base.261" = type { %"struct.std::_Vector_base<gmx::AwhPointStateHistory, std::allocator<gmx::AwhPointStateHistory>>::_Vector_impl" }
%"struct.std::_Vector_base<gmx::AwhPointStateHistory, std::allocator<gmx::AwhPointStateHistory>>::_Vector_impl" = type { %"struct.std::_Vector_base<gmx::AwhPointStateHistory, std::allocator<gmx::AwhPointStateHistory>>::_Vector_impl_data" }
%"struct.std::_Vector_base<gmx::AwhPointStateHistory, std::allocator<gmx::AwhPointStateHistory>>::_Vector_impl_data" = type { ptr, ptr, ptr }
%"struct.gmx::AwhBiasStateHistory" = type { i32, i32, i32, i8, i8, double, double, double, i64 }
%"struct.gmx::CorrelationGridHistory" = type { i32, i32, i32, %"class.std::vector.265" }
%"class.std::vector.265" = type { %"struct.std::_Vector_base.266" }
%"struct.std::_Vector_base.266" = type { %"struct.std::_Vector_base<gmx::CorrelationBlockDataHistory, std::allocator<gmx::CorrelationBlockDataHistory>>::_Vector_impl" }
%"struct.std::_Vector_base<gmx::CorrelationBlockDataHistory, std::allocator<gmx::CorrelationBlockDataHistory>>::_Vector_impl" = type { %"struct.std::_Vector_base<gmx::CorrelationBlockDataHistory, std::allocator<gmx::CorrelationBlockDataHistory>>::_Vector_impl_data" }
%"struct.std::_Vector_base<gmx::CorrelationBlockDataHistory, std::allocator<gmx::CorrelationBlockDataHistory>>::_Vector_impl_data" = type { ptr, ptr, ptr }
%class.anon.272 = type { i8 }

@.str.2 = private unnamed_addr constant [132 x i8] c"generated/home/dtcxzyw/WorkSpace/Projects/compilers/llvm-opt-benchmark/bench/gromacs/gromacs/src/gromacs/applied_forces/awh/awh.cpp\00", align 1
@.str.75 = private unnamed_addr constant [55 x i8] c"awhHistory->bias.size() == biasCoupledToSystem_.size()\00", align 1
@.str.76 = private unnamed_addr constant [46 x i8] c"AWH state and history bias count should match\00", align 1
@"__PRETTY_FUNCTION__._ZZNK3gmx3Awh13updateHistoryEPNS_10AwhHistoryEENK3$_0clEv" = private unnamed_addr constant [82 x i8] c"auto gmx::Awh::updateHistory(AwhHistory *)::(anonymous class)::operator()() const\00", align 1

; Function Attrs: mustprogress nounwind uwtable
define linkonce_odr noundef nonnull align 8 dereferenceable(112) ptr @_ZNSt6vectorIN3gmx14AwhBiasHistoryESaIS1_EEixEm(ptr noundef nonnull align 8 dereferenceable(24) %0, i64 noundef %1) #1 comdat align 2 {
  %3 = alloca ptr, align 8
  %4 = alloca i64, align 8
  store ptr %0, ptr %3, align 8
  store i64 %1, ptr %4, align 8
  %5 = load ptr, ptr %3, align 8
  %6 = getelementptr inbounds %"struct.std::_Vector_base.256", ptr %5, i32 0, i32 0
  %7 = getelementptr inbounds %"struct.std::_Vector_base<gmx::AwhBiasHistory, std::allocator<gmx::AwhBiasHistory>>::_Vector_impl_data", ptr %6, i32 0, i32 0
  %8 = load ptr, ptr %7, align 8
  %9 = load i64, ptr %4, align 8
  %10 = getelementptr inbounds %"struct.gmx::AwhBiasHistory", ptr %8, i64 %9
  ret ptr %10
}

; Function Attrs: mustprogress nounwind uwtable
define linkonce_odr noundef nonnull align 8 dereferenceable(584) ptr @_ZNKSt6vectorIN3gmx19BiasCoupledToSystemESaIS1_EEixEm(ptr noundef nonnull align 8 dereferenceable(24) %0, i64 noundef %1) #1 comdat align 2 {
  %3 = alloca ptr, align 8
  %4 = alloca i64, align 8
  store ptr %0, ptr %3, align 8
  store i64 %1, ptr %4, align 8
  %5 = load ptr, ptr %3, align 8
  %6 = getelementptr inbounds %"struct.std::_Vector_base.81", ptr %5, i32 0, i32 0
  %7 = getelementptr inbounds %"struct.std::_Vector_base<gmx::BiasCoupledToSystem, std::allocator<gmx::BiasCoupledToSystem>>::_Vector_impl_data", ptr %6, i32 0, i32 0
  %8 = load ptr, ptr %7, align 8
  %9 = load i64, ptr %4, align 8
  %10 = getelementptr inbounds %"struct.gmx::BiasCoupledToSystem", ptr %8, i64 %9
  ret ptr %10
}

; Function Attrs: mustprogress uwtable
define internal void @"_ZZNK3gmx3Awh13updateHistoryEPNS_10AwhHistoryEENK3$_0clEv"(ptr noundef nonnull align 1 dereferenceable(1) %0) #0 align 2 {
  %2 = alloca ptr, align 8
  store ptr %0, ptr %2, align 8
  call void @_ZN3gmx8internal13assertHandlerEPKcS2_S2_S2_i(ptr noundef @.str.75, ptr noundef @.str.76, ptr noundef @"__PRETTY_FUNCTION__._ZZNK3gmx3Awh13updateHistoryEPNS_10AwhHistoryEENK3$_0clEv", ptr noundef @.str.2, i32 noundef 484) #12
  unreachable
}

; Function Attrs: mustprogress nounwind uwtable
define linkonce_odr noundef i64 @_ZNKSt6vectorIN3gmx19BiasCoupledToSystemESaIS1_EE4sizeEv(ptr noundef nonnull align 8 dereferenceable(24) %0) #1 comdat align 2 {
  %2 = alloca ptr, align 8
  store ptr %0, ptr %2, align 8
  %3 = load ptr, ptr %2, align 8
  %4 = getelementptr inbounds %"struct.std::_Vector_base.81", ptr %3, i32 0, i32 0
  %5 = getelementptr inbounds %"struct.std::_Vector_base<gmx::BiasCoupledToSystem, std::allocator<gmx::BiasCoupledToSystem>>::_Vector_impl_data", ptr %4, i32 0, i32 1
  %6 = load ptr, ptr %5, align 8
  %7 = getelementptr inbounds %"struct.std::_Vector_base.81", ptr %3, i32 0, i32 0
  %8 = getelementptr inbounds %"struct.std::_Vector_base<gmx::BiasCoupledToSystem, std::allocator<gmx::BiasCoupledToSystem>>::_Vector_impl_data", ptr %7, i32 0, i32 0
  %9 = load ptr, ptr %8, align 8
  %10 = ptrtoint ptr %6 to i64
  %11 = ptrtoint ptr %9 to i64
  %12 = sub i64 %10, %11
  %13 = sdiv exact i64 %12, 584
  ret i64 %13
}

; Function Attrs: mustprogress nounwind uwtable
define linkonce_odr noundef i64 @_ZNKSt6vectorIN3gmx14AwhBiasHistoryESaIS1_EE4sizeEv(ptr noundef nonnull align 8 dereferenceable(24) %0) #1 comdat align 2 {
  %2 = alloca ptr, align 8
  store ptr %0, ptr %2, align 8
  %3 = load ptr, ptr %2, align 8
  %4 = getelementptr inbounds %"struct.std::_Vector_base.256", ptr %3, i32 0, i32 0
  %5 = getelementptr inbounds %"struct.std::_Vector_base<gmx::AwhBiasHistory, std::allocator<gmx::AwhBiasHistory>>::_Vector_impl_data", ptr %4, i32 0, i32 1
  %6 = load ptr, ptr %5, align 8
  %7 = getelementptr inbounds %"struct.std::_Vector_base.256", ptr %3, i32 0, i32 0
  %8 = getelementptr inbounds %"struct.std::_Vector_base<gmx::AwhBiasHistory, std::allocator<gmx::AwhBiasHistory>>::_Vector_impl_data", ptr %7, i32 0, i32 0
  %9 = load ptr, ptr %8, align 8
  %10 = ptrtoint ptr %6 to i64
  %11 = ptrtoint ptr %9 to i64
  %12 = sub i64 %10, %11
  %13 = sdiv exact i64 %12, 112
  ret i64 %13
}

; Function Attrs: mustprogress uwtable
define void @_ZNK3gmx3Awh13updateHistoryEPNS_10AwhHistoryE(ptr noundef nonnull align 8 dereferenceable(80) %0, ptr noundef %1) #0 align 2 {
  %3 = alloca ptr, align 8
  %4 = alloca ptr, align 8
  %5 = alloca %class.anon.272, align 1
  %6 = alloca i64, align 8
  store ptr %0, ptr %3, align 8
  store ptr %1, ptr %4, align 8
  %7 = load ptr, ptr %3, align 8
  %8 = getelementptr inbounds %"class.gmx::Awh", ptr %7, i32 0, i32 3
  %9 = load ptr, ptr %8, align 8
  %10 = getelementptr inbounds %struct.t_commrec, ptr %9, i32 0, i32 10
  %11 = load i32, ptr %10, align 4
  %12 = icmp eq i32 %11, 0
  br i1 %12, label %20, label %13

13:                                               ; preds = %2
  %14 = getelementptr inbounds %"class.gmx::Awh", ptr %7, i32 0, i32 3
  %15 = load ptr, ptr %14, align 8
  %16 = getelementptr inbounds %struct.t_commrec, ptr %15, i32 0, i32 9
  %17 = load i32, ptr %16, align 8
  %18 = icmp sgt i32 %17, 1
  br i1 %18, label %19, label %20

19:                                               ; preds = %13
  br label %52

20:                                               ; preds = %13, %2
  %21 = load ptr, ptr %4, align 8
  %22 = getelementptr inbounds %"struct.gmx::AwhHistory", ptr %21, i32 0, i32 0
  %23 = call noundef i64 @_ZNKSt6vectorIN3gmx14AwhBiasHistoryESaIS1_EE4sizeEv(ptr noundef nonnull align 8 dereferenceable(24) %22) #11
  %24 = getelementptr inbounds %"class.gmx::Awh", ptr %7, i32 0, i32 0
  %25 = call noundef i64 @_ZNKSt6vectorIN3gmx19BiasCoupledToSystemESaIS1_EE4sizeEv(ptr noundef nonnull align 8 dereferenceable(24) %24) #11
  %26 = icmp eq i64 %23, %25
  br i1 %26, label %27, label %28

27:                                               ; preds = %20
  br label %29

28:                                               ; preds = %20
  call void @"_ZZNK3gmx3Awh13updateHistoryEPNS_10AwhHistoryEENK3$_0clEv"(ptr noundef nonnull align 1 dereferenceable(1) %5)
  br label %29

29:                                               ; preds = %28, %27
  %30 = getelementptr inbounds %"class.gmx::Awh", ptr %7, i32 0, i32 6
  %31 = load double, ptr %30, align 8
  %32 = load ptr, ptr %4, align 8
  %33 = getelementptr inbounds %"struct.gmx::AwhHistory", ptr %32, i32 0, i32 1
  store double %31, ptr %33, align 8
  store i64 0, ptr %6, align 8
  br label %34

34:                                               ; preds = %49, %29
  %35 = load i64, ptr %6, align 8
  %36 = load ptr, ptr %4, align 8
  %37 = getelementptr inbounds %"struct.gmx::AwhHistory", ptr %36, i32 0, i32 0
  %38 = call noundef i64 @_ZNKSt6vectorIN3gmx14AwhBiasHistoryESaIS1_EE4sizeEv(ptr noundef nonnull align 8 dereferenceable(24) %37) #11
  %39 = icmp ult i64 %35, %38
  br i1 %39, label %40, label %52

40:                                               ; preds = %34
  %41 = getelementptr inbounds %"class.gmx::Awh", ptr %7, i32 0, i32 0
  %42 = load i64, ptr %6, align 8
  %43 = call noundef nonnull align 8 dereferenceable(584) ptr @_ZNKSt6vectorIN3gmx19BiasCoupledToSystemESaIS1_EEixEm(ptr noundef nonnull align 8 dereferenceable(24) %41, i64 noundef %42) #11
  %44 = getelementptr inbounds %"struct.gmx::BiasCoupledToSystem", ptr %43, i32 0, i32 0
  %45 = load ptr, ptr %4, align 8
  %46 = getelementptr inbounds %"struct.gmx::AwhHistory", ptr %45, i32 0, i32 0
  %47 = load i64, ptr %6, align 8
  %48 = call noundef nonnull align 8 dereferenceable(112) ptr @_ZNSt6vectorIN3gmx14AwhBiasHistoryESaIS1_EEixEm(ptr noundef nonnull align 8 dereferenceable(24) %46, i64 noundef %47) #11
  call void @_ZNK3gmx4Bias13updateHistoryEPNS_14AwhBiasHistoryE(ptr noundef nonnull align 8 dereferenceable(556) %44, ptr noundef %48)
  br label %49

49:                                               ; preds = %40
  %50 = load i64, ptr %6, align 8
  %51 = add i64 %50, 1
  store i64 %51, ptr %6, align 8
  br label %34, !llvm.loop !36

52:                                               ; preds = %34, %19
  ret void
}