; Function Attrs: mustprogress uwtable
define void @_ZNK3gmx3Awh13updateHistoryEPNS_10AwhHistoryE(ptr nocapture noundef nonnull readonly align 8 dereferenceable(80) %0, ptr nocapture noundef %1) local_unnamed_addr #0 align 2 {
  %3 = getelementptr inbounds i8, ptr %0, i64 40
  %4 = load ptr, ptr %3, align 8
  %5 = getelementptr inbounds i8, ptr %4, i64 52
  %6 = load i32, ptr %5, align 4
  %7 = icmp eq i32 %6, 0
  br i1 %7, label %12, label %8

8:                                                ; preds = %2
  %9 = getelementptr inbounds i8, ptr %4, i64 48
  %10 = load i32, ptr %9, align 8
  %11 = icmp sgt i32 %10, 1
  br i1 %11, label %.loopexit, label %12

12:                                               ; preds = %8, %2
  %13 = getelementptr inbounds i8, ptr %1, i64 8
  %14 = load ptr, ptr %13, align 8
  %15 = load ptr, ptr %1, align 8
  %16 = ptrtoint ptr %14 to i64
  %17 = ptrtoint ptr %15 to i64
  %18 = sub i64 %16, %17
  %19 = sdiv exact i64 %18, 112
  %20 = getelementptr inbounds i8, ptr %0, i64 8
  %21 = load ptr, ptr %20, align 8
  %22 = load ptr, ptr %0, align 8
  %23 = ptrtoint ptr %21 to i64
  %24 = ptrtoint ptr %22 to i64
  %25 = sub i64 %23, %24
  %26 = sdiv exact i64 %25, 584
  %27 = icmp eq i64 %19, %26
  br i1 %27, label %29, label %28

28:                                               ; preds = %12
  tail call void @_ZN3gmx8internal13assertHandlerEPKcS2_S2_S2_i(ptr noundef nonnull @.str.75, ptr noundef nonnull @.str.76, ptr noundef nonnull @"__PRETTY_FUNCTION__._ZZNK3gmx3Awh13updateHistoryEPNS_10AwhHistoryEENK3$_0clEv", ptr noundef nonnull @.str.2, i32 noundef 484) #19
  unreachable

29:                                               ; preds = %12
  %30 = getelementptr inbounds i8, ptr %0, i64 64
  %31 = load double, ptr %30, align 8
  %32 = getelementptr inbounds i8, ptr %1, i64 24
  store double %31, ptr %32, align 8
  %.not = icmp eq ptr %14, %15
  br i1 %.not, label %.loopexit, label %.lr.ph

.lr.ph:                                           ; preds = %29, %.lr.ph
  %33 = phi ptr [ %39, %.lr.ph ], [ %15, %29 ]
  %.08 = phi i64 [ %37, %.lr.ph ], [ 0, %29 ]
  %34 = load ptr, ptr %0, align 8
  %35 = getelementptr inbounds %"struct.gmx::BiasCoupledToSystem", ptr %34, i64 %.08
  %36 = getelementptr inbounds %"struct.gmx::AwhBiasHistory", ptr %33, i64 %.08
  tail call void @_ZNK3gmx4Bias13updateHistoryEPNS_14AwhBiasHistoryE(ptr noundef nonnull align 8 dereferenceable(556) %35, ptr noundef nonnull %36)
  %37 = add nuw i64 %.08, 1
  %38 = load ptr, ptr %13, align 8
  %39 = load ptr, ptr %1, align 8
  %40 = ptrtoint ptr %38 to i64
  %41 = ptrtoint ptr %39 to i64
  %42 = sub i64 %40, %41
  %43 = sdiv exact i64 %42, 112
  %44 = icmp ult i64 %37, %43
  br i1 %44, label %.lr.ph, label %.loopexit, !llvm.loop !51

.loopexit:                                        ; preds = %.lr.ph, %29, %8
  ret void
}